target datalayout = "e-m:e-p270:32:32-p271:32:32-p272:64:64-i64:64-i128:128-f80:128-n8:16:32:64-S128"
target triple = "x86_64-pc-linux-gnu"

%struct.mbedtls_sha256_context = type { [2 x i32], [8 x i32], [64 x i8], i32 }

; Function Attrs: mustprogress nounwind uwtable
define hidden i32 @mbedtls_sha256_starts(ptr noundef %0, i32 noundef %1) #0 {
  %3 = alloca ptr, align 8
  %4 = alloca i32, align 4
  store ptr %0, ptr %3, align 8, !tbaa !3
  store i32 %1, ptr %4, align 4, !tbaa !10
  br label %5

5:                                                ; preds = %2
  br label %6

6:                                                ; preds = %5
  br label %7

7:                                                ; preds = %6
  br label %8

8:                                                ; preds = %7
  %9 = load ptr, ptr %3, align 8, !tbaa !3
  %10 = getelementptr inbounds nuw %struct.mbedtls_sha256_context, ptr %9, i32 0, i32 0
  %11 = getelementptr inbounds [2 x i32], ptr %10, i64 0, i64 0
  store i32 0, ptr %11, align 4, !tbaa !10
  %12 = load ptr, ptr %3, align 8, !tbaa !3
  %13 = getelementptr inbounds nuw %struct.mbedtls_sha256_context, ptr %12, i32 0, i32 0
  %14 = getelementptr inbounds [2 x i32], ptr %13, i64 0, i64 1
  store i32 0, ptr %14, align 4, !tbaa !10
  %15 = load i32, ptr %4, align 4, !tbaa !10
  %16 = icmp eq i32 %15, 0
  br i1 %16, label %17, label %42

17:                                               ; preds = %8
  %18 = load ptr, ptr %3, align 8, !tbaa !3
  %19 = getelementptr inbounds nuw %struct.mbedtls_sha256_context, ptr %18, i32 0, i32 1
  %20 = getelementptr inbounds [8 x i32], ptr %19, i64 0, i64 0
  store i32 1779033703, ptr %20, align 4, !tbaa !10
  %21 = load ptr, ptr %3, align 8, !tbaa !3
  %22 = getelementptr inbounds nuw %struct.mbedtls_sha256_context, ptr %21, i32 0, i32 1
  %23 = getelementptr inbounds [8 x i32], ptr %22, i64 0, i64 1
  store i32 -1150833019, ptr %23, align 4, !tbaa !10
  %24 = load ptr, ptr %3, align 8, !tbaa !3
  %25 = getelementptr inbounds nuw %struct.mbedtls_sha256_context, ptr %24, i32 0, i32 1
  %26 = getelementptr inbounds [8 x i32], ptr %25, i64 0, i64 2
  store i32 1013904242, ptr %26, align 4, !tbaa !10
  %27 = load ptr, ptr %3, align 8, !tbaa !3
  %28 = getelementptr inbounds nuw %struct.mbedtls_sha256_context, ptr %27, i32 0, i32 1
  %29 = getelementptr inbounds [8 x i32], ptr %28, i64 0, i64 3
  store i32 -1521486534, ptr %29, align 4, !tbaa !10
  %30 = load ptr, ptr %3, align 8, !tbaa !3
  %31 = getelementptr inbounds nuw %struct.mbedtls_sha256_context, ptr %30, i32 0, i32 1
  %32 = getelementptr inbounds [8 x i32], ptr %31, i64 0, i64 4
  store i32 1359893119, ptr %32, align 4, !tbaa !10
  %33 = load ptr, ptr %3, align 8, !tbaa !3
  %34 = getelementptr inbounds nuw %struct.mbedtls_sha256_context, ptr %33, i32 0, i32 1
  %35 = getelementptr inbounds [8 x i32], ptr %34, i64 0, i64 5
  store i32 -1694144372, ptr %35, align 4, !tbaa !10
  %36 = load ptr, ptr %3, align 8, !tbaa !3
  %37 = getelementptr inbounds nuw %struct.mbedtls_sha256_context, ptr %36, i32 0, i32 1
  %38 = getelementptr inbounds [8 x i32], ptr %37, i64 0, i64 6
  store i32 528734635, ptr %38, align 4, !tbaa !10
  %39 = load ptr, ptr %3, align 8, !tbaa !3
  %40 = getelementptr inbounds nuw %struct.mbedtls_sha256_context, ptr %39, i32 0, i32 1
  %41 = getelementptr inbounds [8 x i32], ptr %40, i64 0, i64 7
  store i32 1541459225, ptr %41, align 4, !tbaa !10
  br label %67

42:                                               ; preds = %8
  %43 = load ptr, ptr %3, align 8, !tbaa !3
  %44 = getelementptr inbounds nuw %struct.mbedtls_sha256_context, ptr %43, i32 0, i32 1
  %45 = getelementptr inbounds [8 x i32], ptr %44, i64 0, i64 0
  store i32 -1056596264, ptr %45, align 4, !tbaa !10
  %46 = load ptr, ptr %3, align 8, !tbaa !3
  %47 = getelementptr inbounds nuw %struct.mbedtls_sha256_context, ptr %46, i32 0, i32 1
  %48 = getelementptr inbounds [8 x i32], ptr %47, i64 0, i64 1
  store i32 914150663, ptr %48, align 4, !tbaa !10
  %49 = load ptr, ptr %3, align 8, !tbaa !3
  %50 = getelementptr inbounds nuw %struct.mbedtls_sha256_context, ptr %49, i32 0, i32 1
  %51 = getelementptr inbounds [8 x i32], ptr %50, i64 0, i64 2
  store i32 812702999, ptr %51, align 4, !tbaa !10
  %52 = load ptr, ptr %3, align 8, !tbaa !3
  %53 = getelementptr inbounds nuw %struct.mbedtls_sha256_context, ptr %52, i32 0, i32 1
  %54 = getelementptr inbounds [8 x i32], ptr %53, i64 0, i64 3
  store i32 -150054599, ptr %54, align 4, !tbaa !10
  %55 = load ptr, ptr %3, align 8, !tbaa !3
  %56 = getelementptr inbounds nuw %struct.mbedtls_sha256_context, ptr %55, i32 0, i32 1
  %57 = getelementptr inbounds [8 x i32], ptr %56, i64 0, i64 4
  store i32 -4191439, ptr %57, align 4, !tbaa !10
  %58 = load ptr, ptr %3, align 8, !tbaa !3
  %59 = getelementptr inbounds nuw %struct.mbedtls_sha256_context, ptr %58, i32 0, i32 1
  %60 = getelementptr inbounds [8 x i32], ptr %59, i64 0, i64 5
  store i32 1750603025, ptr %60, align 4, !tbaa !10
  %61 = load ptr, ptr %3, align 8, !tbaa !3
  %62 = getelementptr inbounds nuw %struct.mbedtls_sha256_context, ptr %61, i32 0, i32 1
  %63 = getelementptr inbounds [8 x i32], ptr %62, i64 0, i64 6
  store i32 1694076839, ptr %63, align 4, !tbaa !10
  %64 = load ptr, ptr %3, align 8, !tbaa !3
  %65 = getelementptr inbounds nuw %struct.mbedtls_sha256_context, ptr %64, i32 0, i32 1
  %66 = getelementptr inbounds [8 x i32], ptr %65, i64 0, i64 7
  store i32 -1090891868, ptr %66, align 4, !tbaa !10
  br label %67

67:                                               ; preds = %42, %17
  %68 = load i32, ptr %4, align 4, !tbaa !10
  %69 = load ptr, ptr %3, align 8, !tbaa !3
  %70 = getelementptr inbounds nuw %struct.mbedtls_sha256_context, ptr %69, i32 0, i32 3
  store i32 %68, ptr %70, align 4, !tbaa !12
  ret i32 0
}