; Function Attrs: mustprogress nofree norecurse nosync nounwind willreturn memory(argmem: write) uwtable
define hidden noundef i32 @mbedtls_sha256_starts(ptr noundef writeonly captures(none) initializes((0, 40), (104, 108)) %0, i32 noundef %1) local_unnamed_addr #0 {
  store i32 0, ptr %0, align 4, !tbaa !7
  %3 = getelementptr inbounds nuw i8, ptr %0, i64 4
  store i32 0, ptr %3, align 4, !tbaa !7
  %4 = icmp eq i32 %1, 0
  br i1 %4, label %6, label %5

5:                                                ; preds = %2
  br label %6

6:                                                ; preds = %2, %5
  %.sink26 = phi i32 [ -1056596264, %5 ], [ 1779033703, %2 ]
  %.sink25 = phi i32 [ 914150663, %5 ], [ -1150833019, %2 ]
  %.sink24 = phi i32 [ 812702999, %5 ], [ 1013904242, %2 ]
  %.sink23 = phi i32 [ -150054599, %5 ], [ -1521486534, %2 ]
  %.sink22 = phi i32 [ -4191439, %5 ], [ 1359893119, %2 ]
  %.sink21 = phi i32 [ 1750603025, %5 ], [ -1694144372, %2 ]
  %.sink20 = phi i32 [ 1694076839, %5 ], [ 528734635, %2 ]
  %.sink = phi i32 [ -1090891868, %5 ], [ 1541459225, %2 ]
  %7 = getelementptr inbounds nuw i8, ptr %0, i64 8
  store i32 %.sink26, ptr %7, align 4, !tbaa !7
  %8 = getelementptr inbounds nuw i8, ptr %0, i64 12
  store i32 %.sink25, ptr %8, align 4, !tbaa !7
  %9 = getelementptr inbounds nuw i8, ptr %0, i64 16
  store i32 %.sink24, ptr %9, align 4, !tbaa !7
  %10 = getelementptr inbounds nuw i8, ptr %0, i64 20
  store i32 %.sink23, ptr %10, align 4, !tbaa !7
  %11 = getelementptr inbounds nuw i8, ptr %0, i64 24
  store i32 %.sink22, ptr %11, align 4, !tbaa !7
  %12 = getelementptr inbounds nuw i8, ptr %0, i64 28
  store i32 %.sink21, ptr %12, align 4, !tbaa !7
  %13 = getelementptr inbounds nuw i8, ptr %0, i64 32
  store i32 %.sink20, ptr %13, align 4, !tbaa !7
  %14 = getelementptr inbounds nuw i8, ptr %0, i64 36
  store i32 %.sink, ptr %14, align 4, !tbaa !7
  %15 = getelementptr inbounds nuw i8, ptr %0, i64 104
  store i32 %1, ptr %15, align 4, !tbaa !9
  ret i32 0
}